; Function Attrs: nounwind uwtable
define void @qasm_recordComment(ptr noundef readonly byval(%struct.Qureg) align 8 captures(none) %0, ptr noundef readonly captures(none) %1, ...) local_unnamed_addr #0 {
  %3 = alloca [1 x %struct.__va_list_tag], align 16
  %4 = alloca [1020 x i8], align 16
  %5 = alloca [1025 x i8], align 16
  %6 = getelementptr inbounds nuw i8, ptr %0, i64 128
  %7 = load ptr, ptr %6, align 8, !tbaa !4
  %8 = getelementptr inbounds nuw i8, ptr %7, i64 16
  %9 = load i32, ptr %8, align 8, !tbaa !14
  %.not = icmp eq i32 %9, 0
  br i1 %.not, label %34, label %10

10:                                               ; preds = %2
  call void @llvm.lifetime.start.p0(i64 24, ptr nonnull %3) #16
  call void @llvm.va_start.p0(ptr nonnull %3)
  call void @llvm.lifetime.start.p0(i64 1020, ptr nonnull %4) #16
  %11 = call i32 @vsnprintf(ptr noundef nonnull %4, i64 noundef 1019, ptr noundef %1, ptr noundef nonnull %3) #16
  call void @llvm.va_end.p0(ptr nonnull %3)
  call void @llvm.lifetime.start.p0(i64 1025, ptr nonnull %5) #16
  %12 = call i32 (ptr, i64, ptr, ...) @snprintf(ptr noundef nonnull dereferenceable(1) %5, i64 noundef 1024, ptr noundef nonnull @.str.4, ptr noundef nonnull @.str.5, ptr noundef nonnull %4) #16
  %13 = load ptr, ptr %7, align 8, !tbaa !18
  %14 = getelementptr inbounds nuw i8, ptr %7, i64 8
  %15 = load i32, ptr %14, align 8, !tbaa !17
  %16 = getelementptr inbounds nuw i8, ptr %7, i64 12
  %17 = load i32, ptr %16, align 4, !tbaa !20
  %18 = add nsw i32 %17, %12
  %19 = icmp sgt i32 %18, %15
  br i1 %19, label %20, label %addStringToQASM.exit

20:                                               ; preds = %10
  %21 = shl nsw i32 %15, 1
  %22 = icmp sgt i32 %18, %21
  br i1 %22, label %23, label %24

23:                                               ; preds = %20
  call void @raiseQASMBufferOverflow(ptr noundef nonnull @__func__.addStringToQASM) #16
  br label %24

24:                                               ; preds = %23, %20
  %25 = sext i32 %21 to i64
  %26 = call noalias ptr @malloc(i64 noundef %25) #15
  %strcpy.i = call ptr @strcpy(ptr noundef nonnull dereferenceable(1) %26, ptr noundef nonnull dereferenceable(1) %13)
  call void @free(ptr noundef %13) #16
  store i32 %21, ptr %14, align 8, !tbaa !17
  store ptr %26, ptr %7, align 8, !tbaa !18
  br label %addStringToQASM.exit

addStringToQASM.exit:                             ; preds = %10, %24
  %.020.i = phi i32 [ %21, %24 ], [ %15, %10 ]
  %.0.i = phi ptr [ %26, %24 ], [ %13, %10 ]
  %27 = sext i32 %17 to i64
  %28 = getelementptr inbounds i8, ptr %.0.i, i64 %27
  %29 = sub nsw i32 %.020.i, %17
  %30 = sext i32 %29 to i64
  %31 = call i32 (ptr, i64, ptr, ...) @snprintf(ptr noundef %28, i64 noundef %30, ptr noundef nonnull @.str.3, ptr noundef nonnull %5) #16
  %32 = load i32, ptr %16, align 4, !tbaa !20
  %33 = add nsw i32 %32, %31
  store i32 %33, ptr %16, align 4, !tbaa !20
  call void @llvm.lifetime.end.p0(i64 1025, ptr nonnull %5) #16
  call void @llvm.lifetime.end.p0(i64 1020, ptr nonnull %4) #16
  call void @llvm.lifetime.end.p0(i64 24, ptr nonnull %3) #16
  br label %34

34:                                               ; preds = %2, %addStringToQASM.exit
  ret void
}